target datalayout = "e-m:e-p270:32:32-p271:32:32-p272:64:64-i64:64-i128:128-f80:128-n8:16:32:64-S128"
target triple = "x86_64-pc-linux-gnu"

@connection = dso_local global ptr null, align 8

; Function Attrs: nounwind uwtable
define internal void @update_connection(ptr noundef %0) #0 {
  %2 = alloca ptr, align 8
  store ptr %0, ptr %2, align 8
  %3 = load ptr, ptr %2, align 8
  %4 = icmp ne ptr %3, null
  br i1 %4, label %5, label %9

5:                                                ; preds = %1
  %6 = load ptr, ptr @connection, align 8
  call void @free(ptr noundef %6) #11
  %7 = load ptr, ptr %2, align 8
  %8 = call ptr @mm_strdup(ptr noundef %7)
  store ptr %8, ptr @connection, align 8
  br label %9

9:                                                ; preds = %5, %1
  ret void
}