; Function Attrs: nounwind uwtable
define internal fastcc void @update_connection(ptr noundef %0) unnamed_addr #0 {
  %.not = icmp eq ptr %0, null
  br i1 %.not, label %5, label %2

2:                                                ; preds = %1
  %3 = load ptr, ptr @connection, align 8
  tail call void @free(ptr noundef %3) #15
  %4 = tail call ptr @mm_strdup(ptr noundef nonnull %0) #15
  store ptr %4, ptr @connection, align 8
  br label %5

5:                                                ; preds = %2, %1
  ret void
}